; Function Attrs: mustprogress uwtable
define dso_local void @_ZN4i18n12phonenumbers55PhoneNumberMatcherTest_NonMatchesWithValidLeniency_Test8TestBodyEv(ptr nocapture noundef nonnull readonly align 8 dereferenceable(148) %0) unnamed_addr #3 align 2 personality ptr @__gxx_personality_v0 {
  %2 = alloca %"class.std::vector.54", align 8
  call void @llvm.memset.p0.i64(ptr noundef nonnull align 8 dereferenceable(24) %2, i8 0, i64 24, i1 false)
  invoke fastcc void @_ZNSt6vectorIN4i18n12phonenumbers12_GLOBAL__N_110NumberTestESaIS3_EE6insertIPKS3_vEEN9__gnu_cxx17__normal_iteratorIPS3_S5_EENSA_IS8_S5_EET_SE_(ptr noundef nonnull align 8 dereferenceable(24) %2, ptr null, ptr noundef nonnull @_ZN4i18n12phonenumbersL16kImpossibleCasesE, ptr noundef nonnull getelementptr inbounds ([17 x %"struct.i18n::phonenumbers::(anonymous namespace)::NumberTest"], ptr @_ZN4i18n12phonenumbersL16kImpossibleCasesE, i64 1, i64 0))
          to label %3 unwind label %12

3:                                                ; preds = %1
  %.val = load ptr, ptr %2, align 8
  invoke fastcc void @_ZNSt6vectorIN4i18n12phonenumbers12_GLOBAL__N_110NumberTestESaIS3_EE6insertIPKS3_vEEN9__gnu_cxx17__normal_iteratorIPS3_S5_EENSA_IS8_S5_EET_SE_(ptr noundef nonnull align 8 dereferenceable(24) %2, ptr %.val, ptr noundef nonnull @_ZN4i18n12phonenumbersL18kPossibleOnlyCasesE, ptr noundef nonnull getelementptr inbounds ([5 x %"struct.i18n::phonenumbers::(anonymous namespace)::NumberTest"], ptr @_ZN4i18n12phonenumbersL18kPossibleOnlyCasesE, i64 1, i64 0))
          to label %4 unwind label %12

4:                                                ; preds = %3
  invoke fastcc void @_ZNK4i18n12phonenumbers22PhoneNumberMatcherTest33DoTestNumberNonMatchesForLeniencyERKSt6vectorINS0_12_GLOBAL__N_110NumberTestESaIS4_EENS0_18PhoneNumberMatcher8LeniencyE(ptr noundef nonnull align 8 dereferenceable(148) %0, ptr noundef nonnull align 8 dereferenceable(24) %2, i32 noundef 1)
          to label %5 unwind label %12

5:                                                ; preds = %4
  %6 = load ptr, ptr %2, align 8
  %7 = getelementptr inbounds i8, ptr %2, i64 8
  %8 = load ptr, ptr %7, align 8
  %.not4.i.i.i.i = icmp eq ptr %6, %8
  br i1 %.not4.i.i.i.i, label %_ZSt8_DestroyIPN4i18n12phonenumbers12_GLOBAL__N_110NumberTestES3_EvT_S5_RSaIT0_E.exit.i, label %.lr.ph.i.i.i.i

.lr.ph.i.i.i.i:                                   ; preds = %5, %.lr.ph.i.i.i.i
  %.05.i.i.i.i = phi ptr [ %10, %.lr.ph.i.i.i.i ], [ %6, %5 ]
  %9 = getelementptr inbounds i8, ptr %.05.i.i.i.i, i64 32
  tail call void @_ZNSt7__cxx1112basic_stringIcSt11char_traitsIcESaIcEED1Ev(ptr noundef nonnull align 8 dereferenceable(32) %9) #16
  tail call void @_ZNSt7__cxx1112basic_stringIcSt11char_traitsIcESaIcEED1Ev(ptr noundef nonnull align 8 dereferenceable(32) %.05.i.i.i.i) #16
  %10 = getelementptr inbounds i8, ptr %.05.i.i.i.i, i64 64
  %.not.i.i.i.i = icmp eq ptr %10, %8
  br i1 %.not.i.i.i.i, label %_ZSt8_DestroyIPN4i18n12phonenumbers12_GLOBAL__N_110NumberTestES3_EvT_S5_RSaIT0_E.exit.i, label %.lr.ph.i.i.i.i, !llvm.loop !21

_ZSt8_DestroyIPN4i18n12phonenumbers12_GLOBAL__N_110NumberTestES3_EvT_S5_RSaIT0_E.exit.i: ; preds = %.lr.ph.i.i.i.i, %5
  %.not.i.i.i = icmp eq ptr %6, null
  br i1 %.not.i.i.i, label %_ZNSt6vectorIN4i18n12phonenumbers12_GLOBAL__N_110NumberTestESaIS3_EED2Ev.exit, label %11

11:                                               ; preds = %_ZSt8_DestroyIPN4i18n12phonenumbers12_GLOBAL__N_110NumberTestES3_EvT_S5_RSaIT0_E.exit.i
  tail call void @_ZdlPv(ptr noundef nonnull %6) #17
  br label %_ZNSt6vectorIN4i18n12phonenumbers12_GLOBAL__N_110NumberTestESaIS3_EED2Ev.exit

_ZNSt6vectorIN4i18n12phonenumbers12_GLOBAL__N_110NumberTestESaIS3_EED2Ev.exit: ; preds = %_ZSt8_DestroyIPN4i18n12phonenumbers12_GLOBAL__N_110NumberTestES3_EvT_S5_RSaIT0_E.exit.i, %11
  ret void

12:                                               ; preds = %1, %3, %4
  %13 = landingpad { ptr, i32 }
          cleanup
  call fastcc void @_ZNSt6vectorIN4i18n12phonenumbers12_GLOBAL__N_110NumberTestESaIS3_EED2Ev(ptr noundef nonnull align 8 dereferenceable(24) %2) #16
  resume { ptr, i32 } %13
}